target datalayout = "e-m:e-p270:32:32-p271:32:32-p272:64:64-i64:64-i128:128-f80:128-n8:16:32:64-S128"
target triple = "x86_64-pc-linux-gnu"

%class.Moves = type { i32, i32, i32, i32, i32, i32, i32, i32, i32, [13 x %"struct.Moves::trackType"], ptr, [13 x [4 x %struct.movePlyType]], ptr, [13 x [4 x i32]], [13 x %"class.std::__cxx11::basic_string"], [13 x [4 x %"struct.Moves::moveStatType"]], [13 x [4 x %"struct.Moves::moveStatType"]], [13 x [4 x %"struct.Moves::moveStatsType"]], [13 x [4 x %"struct.Moves::moveStatsType"]], %"struct.Moves::moveStatsType", %"struct.Moves::moveStatsType", [16 x { i64, i64 }] }
%"struct.Moves::trackType" = type { i32, i32, [4 x i32], [4 x i32], %struct.trickDataType, [4 x %struct.extCard], [4 x i32], [4 x [4 x i32]], [4 x i32] }
%struct.trickDataType = type { [4 x i32], i32, i32, i32, i32, i32 }
%struct.extCard = type { i32, i32, i32 }
%struct.movePlyType = type { [14 x %struct.moveType], i32, i32 }
%struct.moveType = type { i32, i32, i32, i32 }
%"class.std::__cxx11::basic_string" = type { %"struct.std::__cxx11::basic_string<char>::_Alloc_hider", i64, %union.anon }
%"struct.std::__cxx11::basic_string<char>::_Alloc_hider" = type { ptr }
%union.anon = type { i64, [8 x i8] }
%"struct.Moves::moveStatType" = type { i32, i32, i32, i32 }
%"struct.Moves::moveStatsType" = type { i32, [13 x %"struct.Moves::moveStatType"] }

@.str.17 = private unnamed_addr constant [2 x i8] c"\0A\00", align 1
@.str.46 = private unnamed_addr constant [3 x i8] c"\0A\0A\00", align 1
@.str.47 = private unnamed_addr constant [26 x i8] c"Trick detail statistics\0A\0A\00", align 1
@.str.48 = private unnamed_addr constant [7 x i8] c"Trick \00", align 1
@.str.49 = private unnamed_addr constant [17 x i8] c", relative hand \00", align 1
@.str.50 = private unnamed_addr constant [25 x i8] c"Suit detail statistics\0A\0A\00", align 1

; Function Attrs: mustprogress uwtable
define void @_ZNK5Moves17PrintTrickDetailsERSt14basic_ofstreamIcSt11char_traitsIcEE(ptr noundef nonnull align 8 dereferenceable(39992) %0, ptr noundef nonnull align 8 dereferenceable(248) %1) #4 align 2 personality ptr @__gxx_personality_v0 {
  %3 = alloca ptr, align 8
  %4 = alloca ptr, align 8
  %5 = alloca i32, align 4
  %6 = alloca i32, align 4
  %7 = alloca %"class.std::__cxx11::basic_string", align 8
  %8 = alloca ptr, align 8
  %9 = alloca i32, align 4
  %10 = alloca i32, align 4
  %11 = alloca i32, align 4
  %12 = alloca %"class.std::__cxx11::basic_string", align 8
  store ptr %0, ptr %3, align 8
  store ptr %1, ptr %4, align 8
  %13 = load ptr, ptr %3, align 8
  %14 = load ptr, ptr %4, align 8
  %15 = call noundef nonnull align 8 dereferenceable(8) ptr @_ZStlsISt11char_traitsIcEERSt13basic_ostreamIcT_ES5_PKc(ptr noundef nonnull align 8 dereferenceable(8) %14, ptr noundef @.str.47)
  store i32 12, ptr %5, align 4
  br label %16

16:                                               ; preds = %52, %2
  %17 = load i32, ptr %5, align 4
  %18 = icmp sge i32 %17, 0
  br i1 %18, label %19, label %55

19:                                               ; preds = %16
  store i32 0, ptr %6, align 4
  br label %20

20:                                               ; preds = %44, %19
  %21 = load i32, ptr %6, align 4
  %22 = icmp slt i32 %21, 4
  br i1 %22, label %23, label %51

23:                                               ; preds = %20
  %24 = load ptr, ptr %4, align 8
  %25 = call noundef nonnull align 8 dereferenceable(8) ptr @_ZStlsISt11char_traitsIcEERSt13basic_ostreamIcT_ES5_PKc(ptr noundef nonnull align 8 dereferenceable(8) %24, ptr noundef @.str.48)
  %26 = load i32, ptr %5, align 4
  %27 = call noundef nonnull align 8 dereferenceable(8) ptr @_ZNSolsEi(ptr noundef nonnull align 8 dereferenceable(8) %25, i32 noundef %26)
  %28 = call noundef nonnull align 8 dereferenceable(8) ptr @_ZStlsISt11char_traitsIcEERSt13basic_ostreamIcT_ES5_PKc(ptr noundef nonnull align 8 dereferenceable(8) %27, ptr noundef @.str.49)
  %29 = load i32, ptr %6, align 4
  %30 = call noundef nonnull align 8 dereferenceable(8) ptr @_ZNSolsEi(ptr noundef nonnull align 8 dereferenceable(8) %28, i32 noundef %29)
  %31 = call noundef nonnull align 8 dereferenceable(8) ptr @_ZStlsISt11char_traitsIcEERSt13basic_ostreamIcT_ES5_PKc(ptr noundef nonnull align 8 dereferenceable(8) %30, ptr noundef @.str.17)
  %32 = load ptr, ptr %4, align 8
  %33 = getelementptr inbounds nuw %class.Moves, ptr %13, i32 0, i32 17
  %34 = load i32, ptr %5, align 4
  %35 = sext i32 %34 to i64
  %36 = getelementptr inbounds [13 x [4 x %"struct.Moves::moveStatsType"]], ptr %33, i64 0, i64 %35
  %37 = load i32, ptr %6, align 4
  %38 = sext i32 %37 to i64
  %39 = getelementptr inbounds [4 x %"struct.Moves::moveStatsType"], ptr %36, i64 0, i64 %38
  call void @_ZNK5Moves18PrintFunctionTableB5cxx11ERKNS_13moveStatsTypeE(ptr dead_on_unwind writable sret(%"class.std::__cxx11::basic_string") align 8 %7, ptr noundef nonnull align 8 dereferenceable(39992) %13, ptr noundef nonnull align 4 dereferenceable(212) %39)
  %40 = invoke noundef nonnull align 8 dereferenceable(8) ptr @_ZStlsIcSt11char_traitsIcESaIcEERSt13basic_ostreamIT_T0_ES7_RKNSt7__cxx1112basic_stringIS4_S5_T1_EE(ptr noundef nonnull align 8 dereferenceable(8) %32, ptr noundef nonnull align 8 dereferenceable(32) %7)
          to label %41 unwind label %47

41:                                               ; preds = %23
  %42 = invoke noundef nonnull align 8 dereferenceable(8) ptr @_ZStlsISt11char_traitsIcEERSt13basic_ostreamIcT_ES5_PKc(ptr noundef nonnull align 8 dereferenceable(8) %40, ptr noundef @.str.17)
          to label %43 unwind label %47

43:                                               ; preds = %41
  call void @_ZNSt7__cxx1112basic_stringIcSt11char_traitsIcESaIcEED1Ev(ptr noundef nonnull align 8 dereferenceable(32) %7) #3
  br label %44

44:                                               ; preds = %43
  %45 = load i32, ptr %6, align 4
  %46 = add nsw i32 %45, 1
  store i32 %46, ptr %6, align 4
  br label %20, !llvm.loop !94

47:                                               ; preds = %41, %23
  %48 = landingpad { ptr, i32 }
          cleanup
  %49 = extractvalue { ptr, i32 } %48, 0
  store ptr %49, ptr %8, align 8
  %50 = extractvalue { ptr, i32 } %48, 1
  store i32 %50, ptr %9, align 4
  call void @_ZNSt7__cxx1112basic_stringIcSt11char_traitsIcESaIcEED1Ev(ptr noundef nonnull align 8 dereferenceable(32) %7) #3
  br label %100

51:                                               ; preds = %20
  br label %52

52:                                               ; preds = %51
  %53 = load i32, ptr %5, align 4
  %54 = add nsw i32 %53, -1
  store i32 %54, ptr %5, align 4
  br label %16, !llvm.loop !95

55:                                               ; preds = %16
  %56 = load ptr, ptr %4, align 8
  %57 = call noundef nonnull align 8 dereferenceable(8) ptr @_ZStlsISt11char_traitsIcEERSt13basic_ostreamIcT_ES5_PKc(ptr noundef nonnull align 8 dereferenceable(8) %56, ptr noundef @.str.50)
  store i32 12, ptr %10, align 4
  br label %58

58:                                               ; preds = %94, %55
  %59 = load i32, ptr %10, align 4
  %60 = icmp sge i32 %59, 0
  br i1 %60, label %61, label %97

61:                                               ; preds = %58
  store i32 0, ptr %11, align 4
  br label %62

62:                                               ; preds = %86, %61
  %63 = load i32, ptr %11, align 4
  %64 = icmp slt i32 %63, 4
  br i1 %64, label %65, label %93

65:                                               ; preds = %62
  %66 = load ptr, ptr %4, align 8
  %67 = call noundef nonnull align 8 dereferenceable(8) ptr @_ZStlsISt11char_traitsIcEERSt13basic_ostreamIcT_ES5_PKc(ptr noundef nonnull align 8 dereferenceable(8) %66, ptr noundef @.str.48)
  %68 = load i32, ptr %10, align 4
  %69 = call noundef nonnull align 8 dereferenceable(8) ptr @_ZNSolsEi(ptr noundef nonnull align 8 dereferenceable(8) %67, i32 noundef %68)
  %70 = call noundef nonnull align 8 dereferenceable(8) ptr @_ZStlsISt11char_traitsIcEERSt13basic_ostreamIcT_ES5_PKc(ptr noundef nonnull align 8 dereferenceable(8) %69, ptr noundef @.str.49)
  %71 = load i32, ptr %11, align 4
  %72 = call noundef nonnull align 8 dereferenceable(8) ptr @_ZNSolsEi(ptr noundef nonnull align 8 dereferenceable(8) %70, i32 noundef %71)
  %73 = call noundef nonnull align 8 dereferenceable(8) ptr @_ZStlsISt11char_traitsIcEERSt13basic_ostreamIcT_ES5_PKc(ptr noundef nonnull align 8 dereferenceable(8) %72, ptr noundef @.str.17)
  %74 = load ptr, ptr %4, align 8
  %75 = getelementptr inbounds nuw %class.Moves, ptr %13, i32 0, i32 18
  %76 = load i32, ptr %10, align 4
  %77 = sext i32 %76 to i64
  %78 = getelementptr inbounds [13 x [4 x %"struct.Moves::moveStatsType"]], ptr %75, i64 0, i64 %77
  %79 = load i32, ptr %11, align 4
  %80 = sext i32 %79 to i64
  %81 = getelementptr inbounds [4 x %"struct.Moves::moveStatsType"], ptr %78, i64 0, i64 %80
  call void @_ZNK5Moves18PrintFunctionTableB5cxx11ERKNS_13moveStatsTypeE(ptr dead_on_unwind writable sret(%"class.std::__cxx11::basic_string") align 8 %12, ptr noundef nonnull align 8 dereferenceable(39992) %13, ptr noundef nonnull align 4 dereferenceable(212) %81)
  %82 = invoke noundef nonnull align 8 dereferenceable(8) ptr @_ZStlsIcSt11char_traitsIcESaIcEERSt13basic_ostreamIT_T0_ES7_RKNSt7__cxx1112basic_stringIS4_S5_T1_EE(ptr noundef nonnull align 8 dereferenceable(8) %74, ptr noundef nonnull align 8 dereferenceable(32) %12)
          to label %83 unwind label %89

83:                                               ; preds = %65
  %84 = invoke noundef nonnull align 8 dereferenceable(8) ptr @_ZStlsISt11char_traitsIcEERSt13basic_ostreamIcT_ES5_PKc(ptr noundef nonnull align 8 dereferenceable(8) %82, ptr noundef @.str.17)
          to label %85 unwind label %89

85:                                               ; preds = %83
  call void @_ZNSt7__cxx1112basic_stringIcSt11char_traitsIcESaIcEED1Ev(ptr noundef nonnull align 8 dereferenceable(32) %12) #3
  br label %86

86:                                               ; preds = %85
  %87 = load i32, ptr %11, align 4
  %88 = add nsw i32 %87, 1
  store i32 %88, ptr %11, align 4
  br label %62, !llvm.loop !96

89:                                               ; preds = %83, %65
  %90 = landingpad { ptr, i32 }
          cleanup
  %91 = extractvalue { ptr, i32 } %90, 0
  store ptr %91, ptr %8, align 8
  %92 = extractvalue { ptr, i32 } %90, 1
  store i32 %92, ptr %9, align 4
  call void @_ZNSt7__cxx1112basic_stringIcSt11char_traitsIcESaIcEED1Ev(ptr noundef nonnull align 8 dereferenceable(32) %12) #3
  br label %100

93:                                               ; preds = %62
  br label %94

94:                                               ; preds = %93
  %95 = load i32, ptr %10, align 4
  %96 = add nsw i32 %95, -1
  store i32 %96, ptr %10, align 4
  br label %58, !llvm.loop !97

97:                                               ; preds = %58
  %98 = load ptr, ptr %4, align 8
  %99 = call noundef nonnull align 8 dereferenceable(8) ptr @_ZStlsISt11char_traitsIcEERSt13basic_ostreamIcT_ES5_PKc(ptr noundef nonnull align 8 dereferenceable(8) %98, ptr noundef @.str.46)
  ret void

100:                                              ; preds = %89, %47
  %101 = load ptr, ptr %8, align 8
  %102 = load i32, ptr %9, align 4
  %103 = insertvalue { ptr, i32 } poison, ptr %101, 0
  %104 = insertvalue { ptr, i32 } %103, i32 %102, 1
  resume { ptr, i32 } %104
}