; Function Attrs: mustprogress uwtable
define void @_ZNK5Moves17PrintTrickDetailsERSt14basic_ofstreamIcSt11char_traitsIcEE(ptr noundef nonnull align 8 dereferenceable(39992) %0, ptr noundef nonnull align 8 dereferenceable(248) %1) local_unnamed_addr #3 align 2 personality ptr @__gxx_personality_v0 {
  %3 = alloca %"class.std::__cxx11::basic_string", align 8
  %4 = alloca %"class.std::__cxx11::basic_string", align 8
  %5 = tail call noundef nonnull align 8 dereferenceable(8) ptr @_ZStlsISt11char_traitsIcEERSt13basic_ostreamIcT_ES5_PKc(ptr noundef nonnull align 8 dereferenceable(8) %1, ptr noundef nonnull @.str.47)
  %6 = getelementptr inbounds nuw i8, ptr %0, i64 17264
  br label %.preheader31

.preheader31:                                     ; preds = %2, %22
  %indvars.iv37 = phi i64 [ 12, %2 ], [ %indvars.iv.next38, %22 ]
  %7 = trunc nuw nsw i64 %indvars.iv37 to i32
  br label %8

8:                                                ; preds = %.preheader31, %19
  %indvars.iv = phi i64 [ 0, %.preheader31 ], [ %indvars.iv.next, %19 ]
  %9 = call noundef nonnull align 8 dereferenceable(8) ptr @_ZStlsISt11char_traitsIcEERSt13basic_ostreamIcT_ES5_PKc(ptr noundef nonnull align 8 dereferenceable(8) %1, ptr noundef nonnull @.str.48)
  %10 = call noundef nonnull align 8 dereferenceable(8) ptr @_ZNSolsEi(ptr noundef nonnull align 8 dereferenceable(8) %9, i32 noundef %7)
  %11 = call noundef nonnull align 8 dereferenceable(8) ptr @_ZStlsISt11char_traitsIcEERSt13basic_ostreamIcT_ES5_PKc(ptr noundef nonnull align 8 dereferenceable(8) %10, ptr noundef nonnull @.str.49)
  %12 = trunc nuw nsw i64 %indvars.iv to i32
  %13 = call noundef nonnull align 8 dereferenceable(8) ptr @_ZNSolsEi(ptr noundef nonnull align 8 dereferenceable(8) %11, i32 noundef %12)
  %14 = call noundef nonnull align 8 dereferenceable(8) ptr @_ZStlsISt11char_traitsIcEERSt13basic_ostreamIcT_ES5_PKc(ptr noundef nonnull align 8 dereferenceable(8) %13, ptr noundef nonnull @.str.17)
  %15 = getelementptr inbounds [13 x [4 x %"struct.Moves::moveStatsType"]], ptr %6, i64 0, i64 %indvars.iv37, i64 %indvars.iv
  call void @_ZNK5Moves18PrintFunctionTableB5cxx11ERKNS_13moveStatsTypeE(ptr dead_on_unwind nonnull writable sret(%"class.std::__cxx11::basic_string") align 8 %3, ptr noundef nonnull align 8 dereferenceable(39992) %0, ptr noundef nonnull align 4 dereferenceable(212) %15)
  %16 = invoke noundef nonnull align 8 dereferenceable(8) ptr @_ZStlsIcSt11char_traitsIcESaIcEERSt13basic_ostreamIT_T0_ES7_RKNSt7__cxx1112basic_stringIS4_S5_T1_EE(ptr noundef nonnull align 8 dereferenceable(8) %1, ptr noundef nonnull align 8 dereferenceable(32) %3)
          to label %17 unwind label %20

17:                                               ; preds = %8
  %18 = invoke noundef nonnull align 8 dereferenceable(8) ptr @_ZStlsISt11char_traitsIcEERSt13basic_ostreamIcT_ES5_PKc(ptr noundef nonnull align 8 dereferenceable(8) %16, ptr noundef nonnull @.str.17)
          to label %19 unwind label %20

19:                                               ; preds = %17
  call void @_ZNSt7__cxx1112basic_stringIcSt11char_traitsIcESaIcEED1Ev(ptr noundef nonnull align 8 dereferenceable(32) %3) #21
  %indvars.iv.next = add nuw nsw i64 %indvars.iv, 1
  %exitcond.not = icmp eq i64 %indvars.iv.next, 4
  br i1 %exitcond.not, label %22, label %8, !llvm.loop !105

20:                                               ; preds = %17, %8
  %21 = landingpad { ptr, i32 }
          cleanup
  br label %44

22:                                               ; preds = %19
  %indvars.iv.next38 = add nsw i64 %indvars.iv37, -1
  %.not = icmp eq i64 %indvars.iv37, 0
  br i1 %.not, label %23, label %.preheader31, !llvm.loop !106

23:                                               ; preds = %22
  %24 = call noundef nonnull align 8 dereferenceable(8) ptr @_ZStlsISt11char_traitsIcEERSt13basic_ostreamIcT_ES5_PKc(ptr noundef nonnull align 8 dereferenceable(8) %1, ptr noundef nonnull @.str.50)
  %25 = getelementptr inbounds nuw i8, ptr %0, i64 28288
  br label %.preheader

.preheader:                                       ; preds = %23, %41
  %indvars.iv44 = phi i64 [ 12, %23 ], [ %indvars.iv.next45, %41 ]
  %26 = trunc nuw nsw i64 %indvars.iv44 to i32
  br label %27

27:                                               ; preds = %.preheader, %38
  %indvars.iv40 = phi i64 [ 0, %.preheader ], [ %indvars.iv.next41, %38 ]
  %28 = call noundef nonnull align 8 dereferenceable(8) ptr @_ZStlsISt11char_traitsIcEERSt13basic_ostreamIcT_ES5_PKc(ptr noundef nonnull align 8 dereferenceable(8) %1, ptr noundef nonnull @.str.48)
  %29 = call noundef nonnull align 8 dereferenceable(8) ptr @_ZNSolsEi(ptr noundef nonnull align 8 dereferenceable(8) %28, i32 noundef %26)
  %30 = call noundef nonnull align 8 dereferenceable(8) ptr @_ZStlsISt11char_traitsIcEERSt13basic_ostreamIcT_ES5_PKc(ptr noundef nonnull align 8 dereferenceable(8) %29, ptr noundef nonnull @.str.49)
  %31 = trunc nuw nsw i64 %indvars.iv40 to i32
  %32 = call noundef nonnull align 8 dereferenceable(8) ptr @_ZNSolsEi(ptr noundef nonnull align 8 dereferenceable(8) %30, i32 noundef %31)
  %33 = call noundef nonnull align 8 dereferenceable(8) ptr @_ZStlsISt11char_traitsIcEERSt13basic_ostreamIcT_ES5_PKc(ptr noundef nonnull align 8 dereferenceable(8) %32, ptr noundef nonnull @.str.17)
  %34 = getelementptr inbounds [13 x [4 x %"struct.Moves::moveStatsType"]], ptr %25, i64 0, i64 %indvars.iv44, i64 %indvars.iv40
  call void @_ZNK5Moves18PrintFunctionTableB5cxx11ERKNS_13moveStatsTypeE(ptr dead_on_unwind nonnull writable sret(%"class.std::__cxx11::basic_string") align 8 %4, ptr noundef nonnull align 8 dereferenceable(39992) %0, ptr noundef nonnull align 4 dereferenceable(212) %34)
  %35 = invoke noundef nonnull align 8 dereferenceable(8) ptr @_ZStlsIcSt11char_traitsIcESaIcEERSt13basic_ostreamIT_T0_ES7_RKNSt7__cxx1112basic_stringIS4_S5_T1_EE(ptr noundef nonnull align 8 dereferenceable(8) %1, ptr noundef nonnull align 8 dereferenceable(32) %4)
          to label %36 unwind label %39

36:                                               ; preds = %27
  %37 = invoke noundef nonnull align 8 dereferenceable(8) ptr @_ZStlsISt11char_traitsIcEERSt13basic_ostreamIcT_ES5_PKc(ptr noundef nonnull align 8 dereferenceable(8) %35, ptr noundef nonnull @.str.17)
          to label %38 unwind label %39

38:                                               ; preds = %36
  call void @_ZNSt7__cxx1112basic_stringIcSt11char_traitsIcESaIcEED1Ev(ptr noundef nonnull align 8 dereferenceable(32) %4) #21
  %indvars.iv.next41 = add nuw nsw i64 %indvars.iv40, 1
  %exitcond43.not = icmp eq i64 %indvars.iv.next41, 4
  br i1 %exitcond43.not, label %41, label %27, !llvm.loop !107

39:                                               ; preds = %36, %27
  %40 = landingpad { ptr, i32 }
          cleanup
  br label %44

41:                                               ; preds = %38
  %indvars.iv.next45 = add nsw i64 %indvars.iv44, -1
  %.not47 = icmp eq i64 %indvars.iv44, 0
  br i1 %.not47, label %42, label %.preheader, !llvm.loop !108

42:                                               ; preds = %41
  %43 = call noundef nonnull align 8 dereferenceable(8) ptr @_ZStlsISt11char_traitsIcEERSt13basic_ostreamIcT_ES5_PKc(ptr noundef nonnull align 8 dereferenceable(8) %1, ptr noundef nonnull @.str.46)
  ret void

44:                                               ; preds = %39, %20
  %.sink = phi ptr [ %4, %39 ], [ %3, %20 ]
  %.pn = phi { ptr, i32 } [ %40, %39 ], [ %21, %20 ]
  call void @_ZNSt7__cxx1112basic_stringIcSt11char_traitsIcESaIcEED1Ev(ptr noundef nonnull align 8 dereferenceable(32) %.sink) #21
  resume { ptr, i32 } %.pn
}